; ModuleID = 'bench/darktable/original/printprof.ll'
source_filename = "bench/darktable/original/printprof.ll"
target datalayout = "e-m:e-p270:32:32-p271:32:32-p272:64:64-i64:64-i128:128-f80:128-n8:16:32:64-S128"
target triple = "x86_64-pc-linux-gnu"

@.str = private unnamed_addr constant [39 x i8] c"error printer profile may be corrupted\00", align 1
@.str.1 = private unnamed_addr constant [52 x i8] c"unable to allocate buffer for printer-proofed image\00", align 1

; Function Attrs: nounwind uwtable
define range(i32 0, 2) i32 @dt_apply_printer_profile(ptr noundef captures(none) %0, i32 noundef %1, i32 noundef %2, i32 noundef %3, ptr noundef %4, ptr noundef %5, i32 noundef %6, i32 noundef %7) local_unnamed_addr #0 {
  %9 = icmp ne ptr %5, null
  %10 = icmp ne ptr %4, null
  %or.cond = and i1 %10, %9
  br i1 %or.cond, label %11, label %47

11:                                               ; preds = %8
  %12 = icmp eq i32 %3, 8
  %13 = select i1 %12, i32 262169, i32 262170
  %14 = tail call i32 @cmsGetColorSpace(ptr noundef nonnull %5) #4
  %15 = tail call i32 @_cmsLCMScolorSpace(i32 noundef %14) #4
  %16 = shl i32 %15, 16
  %17 = or disjoint i32 %16, 25
  %.not = icmp eq i32 %7, 0
  %18 = select i1 %.not, i32 0, i32 8192
  %19 = tail call ptr @cmsCreateTransform(ptr noundef nonnull %4, i32 noundef %13, ptr noundef nonnull %5, i32 noundef %17, i32 noundef %6, i32 noundef %18) #4
  %.not54 = icmp eq ptr %19, null
  br i1 %.not54, label %20, label %21

20:                                               ; preds = %11
  tail call void (ptr, ...) @dt_print_ext(ptr noundef nonnull @.str) #4
  br label %47

21:                                               ; preds = %11
  %22 = zext i32 %1 to i64
  %23 = mul nuw nsw i64 %22, 3
  %24 = zext i32 %2 to i64
  %25 = mul i64 %23, %24
  %26 = tail call noalias ptr @malloc(i64 noundef %25) #5
  %.not55 = icmp eq ptr %26, null
  br i1 %.not55, label %27, label %28

27:                                               ; preds = %21
  tail call void (ptr, ...) @dt_print_ext(ptr noundef nonnull @.str.1) #4
  br label %47

28:                                               ; preds = %21
  %29 = load ptr, ptr %0, align 8, !tbaa !6
  %.not61 = icmp eq i32 %2, 0
  br i1 %12, label %30, label %38

30:                                               ; preds = %28
  br i1 %.not61, label %.loopexit, label %.lr.ph59

.lr.ph59:                                         ; preds = %30
  %31 = mul i32 %1, 3
  br label %32

32:                                               ; preds = %.lr.ph59, %32
  %indvars.iv64 = phi i64 [ 0, %.lr.ph59 ], [ %indvars.iv.next65, %32 ]
  %33 = trunc nuw nsw i64 %indvars.iv64 to i32
  %34 = mul i32 %31, %33
  %35 = zext i32 %34 to i64
  %36 = getelementptr inbounds nuw i8, ptr %29, i64 %35
  %37 = getelementptr inbounds nuw i8, ptr %26, i64 %35
  tail call void @cmsDoTransform(ptr noundef nonnull %19, ptr noundef %36, ptr noundef nonnull %37, i32 noundef %1) #4
  %indvars.iv.next65 = add nuw nsw i64 %indvars.iv64, 1
  %exitcond68.not = icmp eq i64 %indvars.iv.next65, %24
  br i1 %exitcond68.not, label %.loopexit, label %32

38:                                               ; preds = %28
  br i1 %.not61, label %.loopexit, label %.lr.ph

.lr.ph:                                           ; preds = %38
  %39 = mul i32 %1, 3
  br label %40

40:                                               ; preds = %.lr.ph, %40
  %indvars.iv = phi i64 [ 0, %.lr.ph ], [ %indvars.iv.next, %40 ]
  %41 = trunc nuw nsw i64 %indvars.iv to i32
  %42 = mul i32 %39, %41
  %43 = zext i32 %42 to i64
  %44 = getelementptr inbounds nuw i16, ptr %29, i64 %43
  %45 = getelementptr inbounds nuw i8, ptr %26, i64 %43
  tail call void @cmsDoTransform(ptr noundef nonnull %19, ptr noundef %44, ptr noundef nonnull %45, i32 noundef %1) #4
  %indvars.iv.next = add nuw nsw i64 %indvars.iv, 1
  %exitcond.not = icmp eq i64 %indvars.iv.next, %24
  br i1 %exitcond.not, label %.loopexit, label %40

.loopexit:                                        ; preds = %40, %32, %38, %30
  tail call void @cmsDeleteTransform(ptr noundef nonnull %19) #4
  %46 = load ptr, ptr %0, align 8, !tbaa !6
  tail call void @free(ptr noundef %46) #4
  store ptr %26, ptr %0, align 8, !tbaa !6
  br label %47

47:                                               ; preds = %27, %.loopexit, %8, %20
  %.048 = phi i32 [ 1, %20 ], [ 1, %8 ], [ 0, %.loopexit ], [ 1, %27 ]
  ret i32 %.048
}

declare i32 @_cmsLCMScolorSpace(i32 noundef) local_unnamed_addr #1

declare i32 @cmsGetColorSpace(ptr noundef) local_unnamed_addr #1

declare ptr @cmsCreateTransform(ptr noundef, i32 noundef, ptr noundef, i32 noundef, i32 noundef, i32 noundef) local_unnamed_addr #1

declare void @dt_print_ext(ptr noundef, ...) local_unnamed_addr #1

; Function Attrs: mustprogress nofree nounwind willreturn allockind("alloc,uninitialized") allocsize(0) memory(inaccessiblemem: readwrite)
declare noalias noundef ptr @malloc(i64 noundef) local_unnamed_addr #2

declare void @cmsDoTransform(ptr noundef, ptr noundef, ptr noundef, i32 noundef) local_unnamed_addr #1

declare void @cmsDeleteTransform(ptr noundef) local_unnamed_addr #1

; Function Attrs: mustprogress nounwind willreturn allockind("free") memory(argmem: readwrite, inaccessiblemem: readwrite)
declare void @free(ptr allocptr noundef captures(none)) local_unnamed_addr #3


!llvm.module.flags = !{!0, !1, !2, !3, !4, !5}

!0 = !{i32 7, !"Dwarf Version", i32 5}
!1 = !{i32 2, !"Debug Info Version", i32 3}
!2 = !{i32 1, !"wchar_size", i32 4}
!3 = !{i32 8, !"PIC Level", i32 2}
!4 = !{i32 7, !"uwtable", i32 2}
!5 = !{i32 7, !"debug-info-assignment-tracking", i1 true}
!6 = !{!7, !7, i64 0}
!7 = !{!"any pointer", !8, i64 0}
!8 = !{!"omnipotent char", !9, i64 0}
!9 = !{!"Simple C/C++ TBAA"}
